target datalayout = "e-m:e-p270:32:32-p271:32:32-p272:64:64-i64:64-i128:128-f80:128-n8:16:32:64-S128"
target triple = "x86_64-pc-linux-gnu"

%struct.nghttp2_stream = type { i32, %struct.nghttp2_pq_entry, i64, i64, i64, i64, ptr, ptr, ptr, i64, i32, i32, i32, i32, i32, i32, i32, i16, i32, i8, i8, i8, i8, i8, i8 }
%struct.nghttp2_pq_entry = type { i64 }
%struct.nghttp2_update_window_size_arg = type { ptr, i32, i32 }

; Function Attrs: nounwind uwtable
define i32 @nghttp2_is_fatal(i32 noundef %0) #0 {
  %2 = alloca i32, align 4
  store i32 %0, ptr %2, align 4, !tbaa !3
  %3 = load i32, ptr %2, align 4, !tbaa !3
  %4 = icmp slt i32 %3, -900
  %5 = zext i1 %4 to i32
  ret i32 %5
}

; Function Attrs: nounwind uwtable
define internal i32 @session_resume_deferred_stream_item(ptr noundef %0, ptr noundef %1, i8 noundef zeroext %2) #0 {
  %4 = alloca i32, align 4
  %5 = alloca ptr, align 8
  %6 = alloca ptr, align 8
  %7 = alloca i8, align 1
  store ptr %0, ptr %5, align 8, !tbaa !7
  store ptr %1, ptr %6, align 8, !tbaa !43
  store i8 %2, ptr %7, align 1, !tbaa !117
  %8 = load ptr, ptr %6, align 8, !tbaa !43
  %9 = load i8, ptr %7, align 1, !tbaa !117
  call void @nghttp2_stream_resume_deferred_item(ptr noundef %8, i8 noundef zeroext %9)
  %10 = load ptr, ptr %6, align 8, !tbaa !43
  %11 = getelementptr inbounds nuw %struct.nghttp2_stream, ptr %10, i32 0, i32 19
  %12 = load i8, ptr %11, align 4, !tbaa !45
  %13 = zext i8 %12 to i32
  %14 = and i32 %13, 12
  %15 = icmp ne i32 %14, 0
  br i1 %15, label %16, label %17

16:                                               ; preds = %3
  store i32 0, ptr %4, align 4
  br label %21

17:                                               ; preds = %3
  %18 = load ptr, ptr %5, align 8, !tbaa !7
  %19 = load ptr, ptr %6, align 8, !tbaa !43
  %20 = call i32 @session_ob_data_push(ptr noundef %18, ptr noundef %19)
  store i32 %20, ptr %4, align 4
  br label %21

21:                                               ; preds = %17, %16
  %22 = load i32, ptr %4, align 4
  ret i32 %22
}

; Function Attrs: nounwind uwtable
define internal i32 @update_remote_initial_window_size_func(ptr noundef %0, ptr noundef %1) #0 {
  %3 = alloca i32, align 4
  %4 = alloca ptr, align 8
  %5 = alloca ptr, align 8
  %6 = alloca i32, align 4
  %7 = alloca ptr, align 8
  %8 = alloca ptr, align 8
  %9 = alloca i32, align 4
  store ptr %0, ptr %4, align 8, !tbaa !53
  store ptr %1, ptr %5, align 8, !tbaa !53
  call void @llvm.lifetime.start.p0(i64 4, ptr %6) #10
  call void @llvm.lifetime.start.p0(i64 8, ptr %7) #10
  call void @llvm.lifetime.start.p0(i64 8, ptr %8) #10
  %10 = load ptr, ptr %5, align 8, !tbaa !53
  store ptr %10, ptr %7, align 8, !tbaa !53
  %11 = load ptr, ptr %4, align 8, !tbaa !53
  store ptr %11, ptr %8, align 8, !tbaa !43
  %12 = load ptr, ptr %8, align 8, !tbaa !43
  %13 = load ptr, ptr %7, align 8, !tbaa !53
  %14 = getelementptr inbounds nuw %struct.nghttp2_update_window_size_arg, ptr %13, i32 0, i32 1
  %15 = load i32, ptr %14, align 8, !tbaa !185
  %16 = load ptr, ptr %7, align 8, !tbaa !53
  %17 = getelementptr inbounds nuw %struct.nghttp2_update_window_size_arg, ptr %16, i32 0, i32 2
  %18 = load i32, ptr %17, align 4, !tbaa !186
  %19 = call i32 @nghttp2_stream_update_remote_initial_window_size(ptr noundef %12, i32 noundef %15, i32 noundef %18)
  store i32 %19, ptr %6, align 4, !tbaa !3
  %20 = load i32, ptr %6, align 4, !tbaa !3
  %21 = icmp ne i32 %20, 0
  br i1 %21, label %22, label %30

22:                                               ; preds = %2
  %23 = load ptr, ptr %7, align 8, !tbaa !53
  %24 = getelementptr inbounds nuw %struct.nghttp2_update_window_size_arg, ptr %23, i32 0, i32 0
  %25 = load ptr, ptr %24, align 8, !tbaa !183
  %26 = load ptr, ptr %8, align 8, !tbaa !43
  %27 = getelementptr inbounds nuw %struct.nghttp2_stream, ptr %26, i32 0, i32 10
  %28 = load i32, ptr %27, align 8, !tbaa !145
  %29 = call i32 @nghttp2_session_add_rst_stream(ptr noundef %25, i32 noundef %28, i32 noundef 3)
  store i32 %29, ptr %3, align 4
  store i32 1, ptr %9, align 4
  br label %52

30:                                               ; preds = %2
  %31 = load ptr, ptr %8, align 8, !tbaa !43
  %32 = getelementptr inbounds nuw %struct.nghttp2_stream, ptr %31, i32 0, i32 11
  %33 = load i32, ptr %32, align 4, !tbaa !158
  %34 = icmp sgt i32 %33, 0
  br i1 %34, label %35, label %51

35:                                               ; preds = %30
  %36 = load ptr, ptr %8, align 8, !tbaa !43
  %37 = call i32 @nghttp2_stream_check_deferred_by_flow_control(ptr noundef %36)
  %38 = icmp ne i32 %37, 0
  br i1 %38, label %39, label %51

39:                                               ; preds = %35
  %40 = load ptr, ptr %7, align 8, !tbaa !53
  %41 = getelementptr inbounds nuw %struct.nghttp2_update_window_size_arg, ptr %40, i32 0, i32 0
  %42 = load ptr, ptr %41, align 8, !tbaa !183
  %43 = load ptr, ptr %8, align 8, !tbaa !43
  %44 = call i32 @session_resume_deferred_stream_item(ptr noundef %42, ptr noundef %43, i8 noundef zeroext 4)
  store i32 %44, ptr %6, align 4, !tbaa !3
  %45 = load i32, ptr %6, align 4, !tbaa !3
  %46 = call i32 @nghttp2_is_fatal(i32 noundef %45)
  %47 = icmp ne i32 %46, 0
  br i1 %47, label %48, label %50

48:                                               ; preds = %39
  %49 = load i32, ptr %6, align 4, !tbaa !3
  store i32 %49, ptr %3, align 4
  store i32 1, ptr %9, align 4
  br label %52

50:                                               ; preds = %39
  br label %51

51:                                               ; preds = %50, %35, %30
  store i32 0, ptr %3, align 4
  store i32 1, ptr %9, align 4
  br label %52

52:                                               ; preds = %51, %48, %22
  call void @llvm.lifetime.end.p0(i64 8, ptr %8) #10
  call void @llvm.lifetime.end.p0(i64 8, ptr %7) #10
  call void @llvm.lifetime.end.p0(i64 4, ptr %6) #10
  %53 = load i32, ptr %3, align 4
  ret i32 %53
}