; Function Attrs: nounwind uwtable
define internal i32 @update_remote_initial_window_size_func(ptr noundef %0, ptr noundef readonly captures(none) %1) #1 {
  %3 = getelementptr inbounds nuw i8, ptr %1, i64 8
  %4 = load i32, ptr %3, align 8, !tbaa !184
  %5 = getelementptr inbounds nuw i8, ptr %1, i64 12
  %6 = load i32, ptr %5, align 4, !tbaa !185
  %7 = tail call i32 @nghttp2_stream_update_remote_initial_window_size(ptr noundef %0, i32 noundef %4, i32 noundef %6) #16
  %.not = icmp eq i32 %7, 0
  br i1 %.not, label %13, label %8

8:                                                ; preds = %2
  %9 = load ptr, ptr %1, align 8, !tbaa !182
  %10 = getelementptr inbounds nuw i8, ptr %0, i64 80
  %11 = load i32, ptr %10, align 8, !tbaa !140
  %12 = tail call i32 @nghttp2_session_add_rst_stream(ptr noundef %9, i32 noundef %11, i32 noundef 3)
  br label %26

13:                                               ; preds = %2
  %14 = getelementptr inbounds nuw i8, ptr %0, i64 84
  %15 = load i32, ptr %14, align 4, !tbaa !149
  %16 = icmp sgt i32 %15, 0
  br i1 %16, label %17, label %session_resume_deferred_stream_item.exit.thread

17:                                               ; preds = %13
  %18 = tail call i32 @nghttp2_stream_check_deferred_by_flow_control(ptr noundef nonnull %0) #16
  %.not14 = icmp eq i32 %18, 0
  br i1 %.not14, label %session_resume_deferred_stream_item.exit.thread, label %19

19:                                               ; preds = %17
  %20 = load ptr, ptr %1, align 8, !tbaa !182
  tail call void @nghttp2_stream_resume_deferred_item(ptr noundef nonnull %0, i8 noundef zeroext 4) #16
  %21 = getelementptr inbounds nuw i8, ptr %0, i64 116
  %22 = load i8, ptr %21, align 4, !tbaa !38
  %23 = and i8 %22, 12
  %.not.i = icmp eq i8 %23, 0
  br i1 %.not.i, label %session_resume_deferred_stream_item.exit, label %session_resume_deferred_stream_item.exit.thread

session_resume_deferred_stream_item.exit:         ; preds = %19
  %24 = tail call fastcc i32 @session_ob_data_push(ptr noundef %20, ptr noundef nonnull %0)
  %25 = icmp sgt i32 %24, -901
  br i1 %25, label %session_resume_deferred_stream_item.exit.thread, label %26

session_resume_deferred_stream_item.exit.thread:  ; preds = %19, %session_resume_deferred_stream_item.exit, %17, %13
  br label %26

26:                                               ; preds = %session_resume_deferred_stream_item.exit, %session_resume_deferred_stream_item.exit.thread, %8
  %.0 = phi i32 [ %12, %8 ], [ 0, %session_resume_deferred_stream_item.exit.thread ], [ %24, %session_resume_deferred_stream_item.exit ]
  ret i32 %.0
}